; Function Attrs: nounwind sspstrong uwtable
define internal void @ehci_detach(ptr noundef readonly captures(none) %port) #0 {
entry:
  %_now.i.i = alloca %struct.timeval, align 8
  %opaque = getelementptr inbounds nuw i8, ptr %port, i64 40
  %0 = load ptr, ptr %opaque, align 8
  %portsc1 = getelementptr inbounds nuw i8, ptr %0, i64 1416
  %index = getelementptr inbounds nuw i8, ptr %port, i64 48
  %1 = load i32, ptr %index, align 8
  %idxprom = sext i32 %1 to i64
  %arrayidx = getelementptr [6 x i32], ptr %portsc1, i64 0, i64 %idxprom
  %2 = load i32, ptr %arrayidx, align 4
  %and = and i32 %2, 8192
  %tobool.not = icmp eq i32 %and, 0
  %cond = select i1 %tobool.not, ptr @.str.28, ptr @.str.92
  call void @llvm.lifetime.start.p0(i64 16, ptr nonnull %_now.i.i)
  %3 = load i32, ptr @trace_events_enabled_count, align 4
  %tobool.i.i = icmp ne i32 %3, 0
  %4 = load i16, ptr @_TRACE_USB_EHCI_PORT_DETACH_DSTATE, align 2
  %tobool4.i.i = icmp ne i16 %4, 0
  %or.cond.i.i = select i1 %tobool.i.i, i1 %tobool4.i.i, i1 false
  br i1 %or.cond.i.i, label %land.lhs.true5.i.i, label %trace_usb_ehci_port_detach.exit

land.lhs.true5.i.i:                               ; preds = %entry
  %5 = load i32, ptr @qemu_loglevel, align 4
  %and.i.i.i = and i32 %5, 32768
  %cmp.i.not.i.i = icmp eq i32 %and.i.i.i, 0
  br i1 %cmp.i.not.i.i, label %trace_usb_ehci_port_detach.exit, label %if.then.i.i

if.then.i.i:                                      ; preds = %land.lhs.true5.i.i
  %6 = load i8, ptr @message_with_timestamp, align 1
  %tobool7.i.i = trunc i8 %6 to i1
  br i1 %tobool7.i.i, label %if.then8.i.i, label %if.else.i.i

if.then8.i.i:                                     ; preds = %if.then.i.i
  %call9.i.i = call i32 @gettimeofday(ptr noundef nonnull %_now.i.i, ptr noundef null) #17
  %call10.i.i = tail call i32 @qemu_get_thread_id() #17
  %7 = load i64, ptr %_now.i.i, align 8
  %tv_usec.i.i = getelementptr inbounds nuw i8, ptr %_now.i.i, i64 8
  %8 = load i64, ptr %tv_usec.i.i, align 8
  tail call void (ptr, ...) @qemu_log(ptr noundef nonnull @.str.95, i32 noundef %call10.i.i, i64 noundef %7, i64 noundef %8, i32 noundef %1, ptr noundef nonnull %cond) #17
  br label %trace_usb_ehci_port_detach.exit

if.else.i.i:                                      ; preds = %if.then.i.i
  tail call void (ptr, ...) @qemu_log(ptr noundef nonnull @.str.96, i32 noundef %1, ptr noundef nonnull %cond) #17
  br label %trace_usb_ehci_port_detach.exit

trace_usb_ehci_port_detach.exit:                  ; preds = %entry, %land.lhs.true5.i.i, %if.then8.i.i, %if.else.i.i
  call void @llvm.lifetime.end.p0(i64 16, ptr nonnull %_now.i.i)
  %9 = load i32, ptr %arrayidx, align 4
  %and3 = and i32 %9, 8192
  %tobool4.not = icmp eq i32 %and3, 0
  br i1 %tobool4.not, label %if.end, label %if.then

if.then:                                          ; preds = %trace_usb_ehci_port_detach.exit
  %companion_ports = getelementptr inbounds nuw i8, ptr %0, i64 1904
  %10 = load i32, ptr %index, align 8
  %idxprom6 = sext i32 %10 to i64
  %arrayidx7 = getelementptr [6 x ptr], ptr %companion_ports, i64 0, i64 %idxprom6
  %11 = load ptr, ptr %arrayidx7, align 8
  %ops = getelementptr inbounds nuw i8, ptr %11, i64 32
  %12 = load ptr, ptr %ops, align 8
  %detach = getelementptr inbounds nuw i8, ptr %12, i64 8
  %13 = load ptr, ptr %detach, align 8
  tail call void %13(ptr noundef %11) #17
  store ptr null, ptr %11, align 8
  %14 = load i32, ptr %arrayidx, align 4
  %and8 = and i32 %14, -8193
  store i32 %and8, ptr %arrayidx, align 4
  br label %return

if.end:                                           ; preds = %trace_usb_ehci_port_detach.exit
  %15 = load ptr, ptr %port, align 8
  %cond.i = getelementptr inbounds nuw i8, ptr %0, i64 1976
  %16 = load ptr, ptr %cond.i, align 8
  %tobool1.not5.i = icmp eq ptr %16, null
  br i1 %tobool1.not5.i, label %ehci_queues_rip_device.exit, label %land.rhs.i

land.rhs.i:                                       ; preds = %if.end, %for.inc.i
  %q.06.i = phi ptr [ %17, %for.inc.i ], [ %16, %if.end ]
  %next.i = getelementptr inbounds nuw i8, ptr %q.06.i, i64 8
  %17 = load ptr, ptr %next.i, align 8
  %dev2.i = getelementptr inbounds nuw i8, ptr %q.06.i, i64 112
  %18 = load ptr, ptr %dev2.i, align 8
  %cmp.not.i = icmp eq ptr %18, %15
  br i1 %cmp.not.i, label %if.end.i, label %for.inc.i

if.end.i:                                         ; preds = %land.rhs.i
  tail call fastcc void @ehci_free_queue(ptr noundef %q.06.i, ptr noundef null)
  br label %for.inc.i

for.inc.i:                                        ; preds = %if.end.i, %land.rhs.i
  %tobool1.not.i = icmp eq ptr %17, null
  br i1 %tobool1.not.i, label %ehci_queues_rip_device.exit.loopexit, label %land.rhs.i, !llvm.loop !20

ehci_queues_rip_device.exit.loopexit:             ; preds = %for.inc.i
  %.pre = load ptr, ptr %port, align 8
  br label %ehci_queues_rip_device.exit

ehci_queues_rip_device.exit:                      ; preds = %ehci_queues_rip_device.exit.loopexit, %if.end
  %19 = phi ptr [ %.pre, %ehci_queues_rip_device.exit.loopexit ], [ %15, %if.end ]
  %cond.i16 = getelementptr inbounds nuw i8, ptr %0, i64 1960
  %20 = load ptr, ptr %cond.i16, align 8
  %tobool1.not5.i17 = icmp eq ptr %20, null
  br i1 %tobool1.not5.i17, label %ehci_queues_rip_device.exit26, label %land.rhs.i18

land.rhs.i18:                                     ; preds = %ehci_queues_rip_device.exit, %for.inc.i23
  %q.06.i19 = phi ptr [ %21, %for.inc.i23 ], [ %20, %ehci_queues_rip_device.exit ]
  %next.i20 = getelementptr inbounds nuw i8, ptr %q.06.i19, i64 8
  %21 = load ptr, ptr %next.i20, align 8
  %dev2.i21 = getelementptr inbounds nuw i8, ptr %q.06.i19, i64 112
  %22 = load ptr, ptr %dev2.i21, align 8
  %cmp.not.i22 = icmp eq ptr %22, %19
  br i1 %cmp.not.i22, label %if.end.i25, label %for.inc.i23

if.end.i25:                                       ; preds = %land.rhs.i18
  tail call fastcc void @ehci_free_queue(ptr noundef %q.06.i19, ptr noundef null)
  br label %for.inc.i23

for.inc.i23:                                      ; preds = %if.end.i25, %land.rhs.i18
  %tobool1.not.i24 = icmp eq ptr %21, null
  br i1 %tobool1.not.i24, label %ehci_queues_rip_device.exit26, label %land.rhs.i18, !llvm.loop !20

ehci_queues_rip_device.exit26:                    ; preds = %for.inc.i23, %ehci_queues_rip_device.exit
  %23 = load i32, ptr %arrayidx, align 4
  %and11 = and i32 %23, -136
  %or = or disjoint i32 %and11, 2
  store i32 %or, ptr %arrayidx, align 4
  %usbsts.i = getelementptr inbounds nuw i8, ptr %0, i64 1352
  %24 = load i32, ptr %usbsts.i, align 4
  %or.i = or i32 %24, 4
  store i32 %or.i, ptr %usbsts.i, align 4
  tail call fastcc void @ehci_update_irq(ptr noundef %0)
  br label %return

return:                                           ; preds = %ehci_queues_rip_device.exit26, %if.then
  ret void
}